; ModuleID = '3/2729.c'
source_filename = "3/2729.c"
target datalayout = "e-m:e-p270:32:32-p271:32:32-p272:64:64-i64:64-f80:128-n8:16:32:64-S128"
target triple = "x86_64-pc-linux-gnu"

@.str = private unnamed_addr constant [6 x i8] c"%d %d\00", align 1
@.str.1 = private unnamed_addr constant [3 x i8] c"%d\00", align 1
@.str.2 = private unnamed_addr constant [4 x i8] c"yes\00", align 1
@.str.3 = private unnamed_addr constant [3 x i8] c"no\00", align 1

; Function Attrs: noinline nounwind uwtable
define dso_local i32 @main() #0 {
  %1 = alloca i32, align 4
  %2 = alloca i32, align 4
  %3 = alloca i32, align 4
  %4 = alloca [1000 x i32], align 16
  %5 = alloca i32, align 4
  %6 = alloca i32, align 4
  %7 = alloca i32, align 4
  store i32 0, i32* %1, align 4
  %8 = call i32 (i8*, ...) @__isoc99_scanf(i8* getelementptr inbounds ([6 x i8], [6 x i8]* @.str, i64 0, i64 0), i32* %2, i32* %3)
  store i32 0, i32* %7, align 4
  store i32 0, i32* %5, align 4
  br label %9

9:                                                ; preds = %44, %0
  %10 = load i32, i32* %5, align 4
  %11 = load i32, i32* %2, align 4
  %12 = icmp slt i32 %10, %11
  br i1 %12, label %13, label %47

13:                                               ; preds = %9
  %14 = load i32, i32* %5, align 4
  %15 = sext i32 %14 to i64
  %16 = getelementptr inbounds [1000 x i32], [1000 x i32]* %4, i64 0, i64 %15
  %17 = call i32 (i8*, ...) @__isoc99_scanf(i8* getelementptr inbounds ([3 x i8], [3 x i8]* @.str.1, i64 0, i64 0), i32* %16)
  %18 = load i32, i32* %7, align 4
  %19 = icmp eq i32 %18, 1
  br i1 %19, label %20, label %21

20:                                               ; preds = %13
  br label %47

21:                                               ; preds = %13
  store i32 0, i32* %6, align 4
  br label %22

22:                                               ; preds = %40, %21
  %23 = load i32, i32* %6, align 4
  %24 = load i32, i32* %5, align 4
  %25 = icmp slt i32 %23, %24
  br i1 %25, label %26, label %43

26:                                               ; preds = %22
  %27 = load i32, i32* %5, align 4
  %28 = sext i32 %27 to i64
  %29 = getelementptr inbounds [1000 x i32], [1000 x i32]* %4, i64 0, i64 %28
  %30 = load i32, i32* %29, align 4
  %31 = load i32, i32* %6, align 4
  %32 = sext i32 %31 to i64
  %33 = getelementptr inbounds [1000 x i32], [1000 x i32]* %4, i64 0, i64 %32
  %34 = load i32, i32* %33, align 4
  %35 = add nsw i32 %30, %34
  %36 = load i32, i32* %3, align 4
  %37 = icmp eq i32 %35, %36
  br i1 %37, label %38, label %39

38:                                               ; preds = %26
  store i32 1, i32* %7, align 4
  br label %43

39:                                               ; preds = %26
  br label %40

40:                                               ; preds = %39
  %41 = load i32, i32* %6, align 4
  %42 = add nsw i32 %41, 1
  store i32 %42, i32* %6, align 4
  br label %22

43:                                               ; preds = %38, %22
  br label %44

44:                                               ; preds = %43
  %45 = load i32, i32* %5, align 4
  %46 = add nsw i32 %45, 1
  store i32 %46, i32* %5, align 4
  br label %9

47:                                               ; preds = %20, %9
  %48 = load i32, i32* %7, align 4
  %49 = icmp eq i32 %48, 1
  br i1 %49, label %50, label %52

50:                                               ; preds = %47
  %51 = call i32 (i8*, ...) @printf(i8* getelementptr inbounds ([4 x i8], [4 x i8]* @.str.2, i64 0, i64 0))
  br label %54

52:                                               ; preds = %47
  %53 = call i32 (i8*, ...) @printf(i8* getelementptr inbounds ([3 x i8], [3 x i8]* @.str.3, i64 0, i64 0))
  br label %54

54:                                               ; preds = %52, %50
  %55 = load i32, i32* %1, align 4
  ret i32 %55
}

declare dso_local i32 @__isoc99_scanf(i8*, ...) #1

declare dso_local i32 @printf(i8*, ...) #1


!llvm.module.flags = !{!0}
!llvm.ident = !{!1}

!0 = !{i32 1, !"wchar_size", i32 4}
!1 = !{!"clang version 10.0.0-4ubuntu1 "}
